; Function Attrs: mustprogress uwtable
define void @_ZN17RtpAnalysisDialog15rtpPlayerRemoveEv(ptr noundef nonnull align 8 dereferenceable(328) %0) local_unnamed_addr #0 align 2 personality ptr @__gxx_personality_v0 {
  %2 = alloca %class.QList.78, align 8
  %3 = getelementptr inbounds i8, ptr %0, i64 168
  %4 = load i64, ptr %3, align 8
  %5 = icmp slt i64 %4, 1
  br i1 %5, label %_ZN5QListIP13_rtpstream_idED2Ev.exit, label %6

6:                                                ; preds = %1
  call void @_ZN17RtpAnalysisDialog17getSelectedRtpIdsEv(ptr dead_on_unwind nonnull writable sret(%class.QList.78) align 8 %2, ptr noundef nonnull align 8 dereferenceable(328) %0)
  invoke void @_ZN17RtpAnalysisDialog31rtpPlayerDialogRemoveRtpStreamsE5QListIP13_rtpstream_idE(ptr noundef nonnull align 8 dereferenceable(328) %0, ptr noundef nonnull %2)
          to label %7 unwind label %12

7:                                                ; preds = %6
  %8 = load ptr, ptr %2, align 8
  %.not.i.i.i = icmp eq ptr %8, null
  br i1 %.not.i.i.i, label %_ZN5QListIP13_rtpstream_idED2Ev.exit, label %_ZN17QArrayDataPointerIP13_rtpstream_idE5derefEv.exit.i.i

_ZN17QArrayDataPointerIP13_rtpstream_idE5derefEv.exit.i.i: ; preds = %7
  %9 = atomicrmw sub ptr %8, i32 1 seq_cst, align 4
  %.not.i.i = icmp eq i32 %9, 1
  br i1 %.not.i.i, label %10, label %_ZN5QListIP13_rtpstream_idED2Ev.exit

10:                                               ; preds = %_ZN17QArrayDataPointerIP13_rtpstream_idE5derefEv.exit.i.i
  %11 = load ptr, ptr %2, align 8
  call void @_ZN10QArrayData10deallocateEPS_xx(ptr noundef %11, i64 noundef 8, i64 noundef 8) #19
  br label %_ZN5QListIP13_rtpstream_idED2Ev.exit

_ZN5QListIP13_rtpstream_idED2Ev.exit:             ; preds = %10, %_ZN17QArrayDataPointerIP13_rtpstream_idE5derefEv.exit.i.i, %7, %1
  ret void

12:                                               ; preds = %6
  %13 = landingpad { ptr, i32 }
          cleanup
  %14 = load ptr, ptr %2, align 8
  %.not.i.i.i2 = icmp eq ptr %14, null
  br i1 %.not.i.i.i2, label %_ZN5QListIP13_rtpstream_idED2Ev.exit5, label %_ZN17QArrayDataPointerIP13_rtpstream_idE5derefEv.exit.i.i3

_ZN17QArrayDataPointerIP13_rtpstream_idE5derefEv.exit.i.i3: ; preds = %12
  %15 = atomicrmw sub ptr %14, i32 1 seq_cst, align 4
  %.not.i.i4 = icmp eq i32 %15, 1
  br i1 %.not.i.i4, label %16, label %_ZN5QListIP13_rtpstream_idED2Ev.exit5

16:                                               ; preds = %_ZN17QArrayDataPointerIP13_rtpstream_idE5derefEv.exit.i.i3
  %17 = load ptr, ptr %2, align 8
  call void @_ZN10QArrayData10deallocateEPS_xx(ptr noundef %17, i64 noundef 8, i64 noundef 8) #19
  br label %_ZN5QListIP13_rtpstream_idED2Ev.exit5

_ZN5QListIP13_rtpstream_idED2Ev.exit5:            ; preds = %12, %_ZN17QArrayDataPointerIP13_rtpstream_idE5derefEv.exit.i.i3, %16
  resume { ptr, i32 } %13
}